; Function Attrs: nounwind uwtable
define range(i64 -9223372036854775808, 9223372036854775807) i64 @H5VL_conn_dec_rc(ptr noundef %0) local_unnamed_addr #0 {
  %2 = getelementptr inbounds i8, ptr %0, i64 8
  %3 = load i64, ptr %2, align 8
  %4 = add nsw i64 %3, -1
  store i64 %4, ptr %2, align 8
  %5 = icmp eq i64 %4, 0
  br i1 %5, label %6, label %17

6:                                                ; preds = %1
  %7 = getelementptr inbounds i8, ptr %0, i64 16
  %8 = load i64, ptr %7, align 8
  %9 = tail call i32 @H5I_dec_ref(i64 noundef %8) #10
  %10 = icmp slt i32 %9, 0
  br i1 %10, label %11, label %15

11:                                               ; preds = %6
  %12 = load i64, ptr @H5E_VOL_g, align 8
  %13 = load i64, ptr @H5E_CANTDEC_g, align 8
  %14 = tail call i32 (ptr, ptr, i32, i64, i64, ptr, ...) @H5E_printf_stack(ptr noundef nonnull @.str.2, ptr noundef nonnull @__func__.H5VL_conn_dec_rc, i32 noundef 983, i64 noundef %12, i64 noundef %13, ptr noundef nonnull @.str.45) #10
  br label %17

15:                                               ; preds = %6
  %16 = tail call ptr @H5FL_reg_free(ptr noundef nonnull @H5_H5VL_t_reg_free_list, ptr noundef nonnull %0) #10
  br label %17

17:                                               ; preds = %1, %15, %11
  %.0 = phi i64 [ -1, %11 ], [ 0, %15 ], [ %4, %1 ]
  ret i64 %.0
}